(iplayerClass
Person
p0
(dp1
S'name'
p2
S'Peter'
p3
sS'gold'
p4
I100
sS'inventar'
p5
(lp6
sS'gesundheit'
p7
I100
sS'hunger'
p8
I100
sS'sekunde'
p9
F1546950183.388
sS'_Person__armor'
p10
(dp11
S'feet'
p12
S'empty'
p13
sS'head'
p14
g13
sS'legs'
p15
g13
sS'chest'
p16
g13
ssS'_Person__tod'
p17
I00
sb.